target datalayout = "e-m:e-p270:32:32-p271:32:32-p272:64:64-i64:64-i128:128-f80:128-n8:16:32:64-S128"
target triple = "x86_64-pc-linux-gnu"

%struct.expert_field = type { i32, i32 }

@hf_nan_oui = internal global i32 0, align 4
@hf_nan_type_status = internal global i32 0, align 4
@hf_nan_reason_code = internal global i32 0, align 4
@hf_nan_publish_id = internal global i32 0, align 4
@hf_nan_dialog_tokens = internal global i32 0, align 4
@hf_nan_attr_ndp_initiator = internal global i32 0, align 4
@hf_nan_attr_ndp_id = internal global i32 0, align 4
@hf_nan_attr_ndpe_control = internal global i32 0, align 4
@hf_nan_attr_ndp_responder_ndi = internal global i32 0, align 4
@hf_nan_attr_ndpe_tlv_type = internal global i32 0, align 4
@hf_nan_attr_ndpe_tlv_len = internal global i32 0, align 4
@hf_nan_attr_ndpe_tlv_ipv6_interface_identifier = internal global i32 0, align 4
@hf_nan_attr_vendor_specific_body = internal global i32 0, align 4
@ett_type_status = internal global i32 0, align 4
@ett_ndp_control = internal global i32 0, align 4
@ett_ndpe_tlv = internal global i32 0, align 4
@ei_nan_elem_len_invalid = internal global %struct.expert_field zeroinitializer, align 4
@dissect_attr_ndpe.ndp_type_status_fields = internal constant [3 x ptr] [ptr @hf_nan_attr_ndp_type, ptr @hf_nan_status_1, ptr null], align 16
@dissect_attr_ndpe.ndpe_control_fields = internal constant [6 x ptr] [ptr @hf_nan_attr_ndpe_ctrl_confirm, ptr @hf_nan_attr_ndpe_ctrl_security_pres, ptr @hf_nan_attr_ndpe_ctrl_publish_id_pres, ptr @hf_nan_attr_ndpe_ctrl_responder_ndi_pres, ptr @hf_nan_attr_ndpe_ctrl_gtk_requried, ptr null], align 16
@.str.729 = private unnamed_addr constant [10 x i8] c"TLV entry\00", align 1

; Function Attrs: null_pointer_is_valid sspstrong uwtable
define internal void @dissect_attr_ndpe(ptr noundef %0, ptr noundef %1, i32 noundef %2, i16 noundef zeroext %3, ptr noundef %4) #0 {
  %6 = alloca ptr, align 8
  %7 = alloca ptr, align 8
  %8 = alloca i32, align 4
  %9 = alloca i16, align 2
  %10 = alloca ptr, align 8
  %11 = alloca i32, align 4
  %12 = alloca i8, align 1
  %13 = alloca i32, align 4
  %14 = alloca i8, align 1
  %15 = alloca i8, align 1
  %16 = alloca i8, align 1
  %17 = alloca i16, align 2
  %18 = alloca ptr, align 8
  store ptr %0, ptr %6, align 8
  store ptr %1, ptr %7, align 8
  store i32 %2, ptr %8, align 4
  store i16 %3, ptr %9, align 2
  store ptr %4, ptr %10, align 8
  %19 = load i16, ptr %9, align 2
  %20 = zext i16 %19 to i32
  %21 = icmp slt i32 %20, 11
  br i1 %21, label %22, label %26

22:                                               ; preds = %5
  %23 = load ptr, ptr %10, align 8
  %24 = load ptr, ptr %6, align 8
  %25 = call ptr @expert_add_info(ptr noundef %23, ptr noundef %24, ptr noundef @ei_nan_elem_len_invalid)
  br label %225

26:                                               ; preds = %5
  call void @llvm.lifetime.start.p0(i64 4, ptr %11) #5
  store i32 0, ptr %11, align 4
  %27 = load ptr, ptr %6, align 8
  %28 = load i32, ptr @hf_nan_dialog_tokens, align 4
  %29 = load ptr, ptr %7, align 8
  %30 = load i32, ptr %8, align 4
  %31 = add i32 %30, 3
  %32 = call ptr @proto_tree_add_item(ptr noundef %27, i32 noundef %28, ptr noundef %29, i32 noundef %31, i32 noundef 1, i32 noundef 0)
  %33 = load ptr, ptr %6, align 8
  %34 = load ptr, ptr %7, align 8
  %35 = load i32, ptr %8, align 4
  %36 = add i32 %35, 4
  %37 = load i32, ptr @hf_nan_type_status, align 4
  %38 = load i32, ptr @ett_type_status, align 4
  %39 = call ptr @proto_tree_add_bitmask(ptr noundef %33, ptr noundef %34, i32 noundef %36, i32 noundef %37, i32 noundef %38, ptr noundef @dissect_attr_ndpe.ndp_type_status_fields, i32 noundef -2147483648)
  %40 = load i32, ptr %8, align 4
  %41 = add i32 %40, 4
  store i32 %41, ptr %8, align 4
  %42 = load i32, ptr %11, align 4
  %43 = add i32 %42, 4
  store i32 %43, ptr %11, align 4
  call void @llvm.lifetime.start.p0(i64 1, ptr %12) #5
  %44 = load ptr, ptr %7, align 8
  %45 = load i32, ptr %8, align 4
  %46 = mul i32 %45, 8
  %47 = add i32 %46, 4
  %48 = call zeroext i8 @tvb_get_bits8(ptr noundef %44, i32 noundef %47, i32 noundef 4)
  store i8 %48, ptr %12, align 1
  call void @llvm.lifetime.start.p0(i64 4, ptr %13) #5
  %49 = load i32, ptr %8, align 4
  %50 = mul i32 %49, 8
  %51 = add i32 %50, 4
  store i32 %51, ptr %13, align 4
  call void @llvm.lifetime.start.p0(i64 1, ptr %14) #5
  %52 = load ptr, ptr %7, align 8
  %53 = load i32, ptr %13, align 4
  %54 = call zeroext i8 @tvb_get_bits8(ptr noundef %52, i32 noundef %53, i32 noundef 4)
  store i8 %54, ptr %14, align 1
  %55 = load ptr, ptr %6, align 8
  %56 = load i32, ptr @hf_nan_reason_code, align 4
  %57 = load ptr, ptr %7, align 8
  %58 = load i32, ptr %8, align 4
  %59 = add i32 %58, 1
  %60 = call ptr @proto_tree_add_item(ptr noundef %55, i32 noundef %56, ptr noundef %57, i32 noundef %59, i32 noundef 1, i32 noundef 0)
  %61 = load ptr, ptr %6, align 8
  %62 = load i32, ptr @hf_nan_attr_ndp_initiator, align 4
  %63 = load ptr, ptr %7, align 8
  %64 = load i32, ptr %8, align 4
  %65 = add i32 %64, 2
  %66 = call ptr @proto_tree_add_item(ptr noundef %61, i32 noundef %62, ptr noundef %63, i32 noundef %65, i32 noundef 6, i32 noundef 0)
  %67 = load ptr, ptr %6, align 8
  %68 = load i32, ptr @hf_nan_attr_ndp_id, align 4
  %69 = load ptr, ptr %7, align 8
  %70 = load i32, ptr %8, align 4
  %71 = add i32 %70, 8
  %72 = call ptr @proto_tree_add_item(ptr noundef %67, i32 noundef %68, ptr noundef %69, i32 noundef %71, i32 noundef 1, i32 noundef 0)
  %73 = load ptr, ptr %6, align 8
  %74 = load ptr, ptr %7, align 8
  %75 = load i32, ptr %8, align 4
  %76 = add i32 %75, 9
  %77 = load i32, ptr @hf_nan_attr_ndpe_control, align 4
  %78 = load i32, ptr @ett_ndp_control, align 4
  %79 = call ptr @proto_tree_add_bitmask(ptr noundef %73, ptr noundef %74, i32 noundef %76, i32 noundef %77, i32 noundef %78, ptr noundef @dissect_attr_ndpe.ndpe_control_fields, i32 noundef -2147483648)
  %80 = load i32, ptr %8, align 4
  %81 = add i32 %80, 9
  store i32 %81, ptr %8, align 4
  %82 = load i32, ptr %11, align 4
  %83 = add i32 %82, 9
  store i32 %83, ptr %11, align 4
  call void @llvm.lifetime.start.p0(i64 1, ptr %15) #5
  %84 = load ptr, ptr %7, align 8
  %85 = load i32, ptr %8, align 4
  %86 = mul i32 %85, 8
  %87 = add i32 %86, 4
  %88 = call zeroext i8 @tvb_get_bits8(ptr noundef %84, i32 noundef %87, i32 noundef 1)
  store i8 %88, ptr %15, align 1
  %89 = load i32, ptr %8, align 4
  %90 = add i32 %89, 1
  store i32 %90, ptr %8, align 4
  %91 = load i32, ptr %11, align 4
  %92 = add i32 %91, 1
  store i32 %92, ptr %11, align 4
  %93 = load i8, ptr %15, align 1
  %94 = zext i8 %93 to i32
  %95 = icmp eq i32 %94, 1
  br i1 %95, label %96, label %110

96:                                               ; preds = %26
  %97 = load i8, ptr %12, align 1
  %98 = zext i8 %97 to i32
  %99 = icmp eq i32 %98, 0
  br i1 %99, label %100, label %110

100:                                              ; preds = %96
  %101 = load ptr, ptr %6, align 8
  %102 = load i32, ptr @hf_nan_publish_id, align 4
  %103 = load ptr, ptr %7, align 8
  %104 = load i32, ptr %8, align 4
  %105 = call ptr @proto_tree_add_item(ptr noundef %101, i32 noundef %102, ptr noundef %103, i32 noundef %104, i32 noundef 1, i32 noundef 0)
  %106 = load i32, ptr %8, align 4
  %107 = add i32 %106, 1
  store i32 %107, ptr %8, align 4
  %108 = load i32, ptr %11, align 4
  %109 = add i32 %108, 1
  store i32 %109, ptr %11, align 4
  br label %110

110:                                              ; preds = %100, %96, %26
  %111 = load i8, ptr %12, align 1
  %112 = zext i8 %111 to i32
  %113 = icmp eq i32 %112, 1
  br i1 %113, label %114, label %132

114:                                              ; preds = %110
  %115 = load i8, ptr %14, align 1
  %116 = zext i8 %115 to i32
  %117 = icmp eq i32 %116, 0
  br i1 %117, label %122, label %118

118:                                              ; preds = %114
  %119 = load i8, ptr %14, align 1
  %120 = zext i8 %119 to i32
  %121 = icmp eq i32 %120, 1
  br i1 %121, label %122, label %132

122:                                              ; preds = %118, %114
  %123 = load ptr, ptr %6, align 8
  %124 = load i32, ptr @hf_nan_attr_ndp_responder_ndi, align 4
  %125 = load ptr, ptr %7, align 8
  %126 = load i32, ptr %8, align 4
  %127 = call ptr @proto_tree_add_item(ptr noundef %123, i32 noundef %124, ptr noundef %125, i32 noundef %126, i32 noundef 6, i32 noundef 0)
  %128 = load i32, ptr %8, align 4
  %129 = add i32 %128, 6
  store i32 %129, ptr %8, align 4
  %130 = load i32, ptr %11, align 4
  %131 = add i32 %130, 6
  store i32 %131, ptr %11, align 4
  br label %132

132:                                              ; preds = %122, %118, %110
  br label %133

133:                                              ; preds = %223, %132
  %134 = load i32, ptr %11, align 4
  %135 = load i16, ptr %9, align 2
  %136 = zext i16 %135 to i32
  %137 = icmp slt i32 %134, %136
  br i1 %137, label %138, label %224

138:                                              ; preds = %133
  call void @llvm.lifetime.start.p0(i64 1, ptr %16) #5
  %139 = load ptr, ptr %7, align 8
  %140 = load i32, ptr %8, align 4
  %141 = call zeroext i8 @tvb_get_uint8(ptr noundef %139, i32 noundef %140)
  store i8 %141, ptr %16, align 1
  call void @llvm.lifetime.start.p0(i64 2, ptr %17) #5
  %142 = load ptr, ptr %7, align 8
  %143 = load i32, ptr %8, align 4
  %144 = add i32 %143, 1
  %145 = call zeroext i16 @tvb_get_letohs(ptr noundef %142, i32 noundef %144)
  store i16 %145, ptr %17, align 2
  call void @llvm.lifetime.start.p0(i64 8, ptr %18) #5
  %146 = load ptr, ptr %6, align 8
  %147 = load ptr, ptr %7, align 8
  %148 = load i32, ptr %8, align 4
  %149 = load i16, ptr %17, align 2
  %150 = zext i16 %149 to i32
  %151 = add i32 %150, 3
  %152 = load i32, ptr @ett_ndpe_tlv, align 4
  %153 = call ptr @proto_tree_add_subtree(ptr noundef %146, ptr noundef %147, i32 noundef %148, i32 noundef %151, i32 noundef %152, ptr noundef null, ptr noundef @.str.729)
  store ptr %153, ptr %18, align 8
  %154 = load ptr, ptr %18, align 8
  %155 = load i32, ptr @hf_nan_attr_ndpe_tlv_type, align 4
  %156 = load ptr, ptr %7, align 8
  %157 = load i32, ptr %8, align 4
  %158 = call ptr @proto_tree_add_item(ptr noundef %154, i32 noundef %155, ptr noundef %156, i32 noundef %157, i32 noundef 1, i32 noundef 0)
  %159 = load ptr, ptr %18, align 8
  %160 = load i32, ptr @hf_nan_attr_ndpe_tlv_len, align 4
  %161 = load ptr, ptr %7, align 8
  %162 = load i32, ptr %8, align 4
  %163 = add i32 %162, 1
  %164 = call ptr @proto_tree_add_item(ptr noundef %159, i32 noundef %160, ptr noundef %161, i32 noundef %163, i32 noundef 2, i32 noundef -2147483648)
  %165 = load i8, ptr %16, align 1
  %166 = zext i8 %165 to i32
  switch i32 %166, label %204 [
    i32 0, label %167
    i32 1, label %178
  ]

167:                                              ; preds = %138
  %168 = load ptr, ptr %18, align 8
  %169 = load i32, ptr @hf_nan_attr_ndpe_tlv_ipv6_interface_identifier, align 4
  %170 = load ptr, ptr %7, align 8
  %171 = load i32, ptr %8, align 4
  %172 = add i32 %171, 3
  %173 = call ptr @proto_tree_add_item(ptr noundef %168, i32 noundef %169, ptr noundef %170, i32 noundef %172, i32 noundef 8, i32 noundef 0)
  %174 = load i32, ptr %8, align 4
  %175 = add i32 %174, 11
  store i32 %175, ptr %8, align 4
  %176 = load i32, ptr %11, align 4
  %177 = add i32 %176, 11
  store i32 %177, ptr %11, align 4
  br label %223

178:                                              ; preds = %138
  %179 = load ptr, ptr %18, align 8
  %180 = load i32, ptr @hf_nan_oui, align 4
  %181 = load ptr, ptr %7, align 8
  %182 = load i32, ptr %8, align 4
  %183 = add i32 %182, 3
  %184 = call ptr @proto_tree_add_item(ptr noundef %179, i32 noundef %180, ptr noundef %181, i32 noundef %183, i32 noundef 3, i32 noundef 0)
  %185 = load ptr, ptr %18, align 8
  %186 = load i32, ptr @hf_nan_attr_vendor_specific_body, align 4
  %187 = load ptr, ptr %7, align 8
  %188 = load i32, ptr %8, align 4
  %189 = add i32 %188, 6
  %190 = load i16, ptr %17, align 2
  %191 = zext i16 %190 to i32
  %192 = sub i32 %191, 3
  %193 = call ptr @proto_tree_add_item(ptr noundef %185, i32 noundef %186, ptr noundef %187, i32 noundef %189, i32 noundef %192, i32 noundef 0)
  %194 = load i16, ptr %17, align 2
  %195 = zext i16 %194 to i32
  %196 = add i32 %195, 3
  %197 = load i32, ptr %8, align 4
  %198 = add i32 %197, %196
  store i32 %198, ptr %8, align 4
  %199 = load i16, ptr %17, align 2
  %200 = zext i16 %199 to i32
  %201 = add i32 %200, 3
  %202 = load i32, ptr %11, align 4
  %203 = add i32 %202, %201
  store i32 %203, ptr %11, align 4
  br label %223

204:                                              ; preds = %138
  %205 = load ptr, ptr %18, align 8
  %206 = load i32, ptr @hf_nan_attr_vendor_specific_body, align 4
  %207 = load ptr, ptr %7, align 8
  %208 = load i32, ptr %8, align 4
  %209 = add i32 %208, 3
  %210 = load i16, ptr %17, align 2
  %211 = zext i16 %210 to i32
  %212 = call ptr @proto_tree_add_item(ptr noundef %205, i32 noundef %206, ptr noundef %207, i32 noundef %209, i32 noundef %211, i32 noundef 0)
  %213 = load i16, ptr %17, align 2
  %214 = zext i16 %213 to i32
  %215 = add i32 %214, 3
  %216 = load i32, ptr %8, align 4
  %217 = add i32 %216, %215
  store i32 %217, ptr %8, align 4
  %218 = load i16, ptr %17, align 2
  %219 = zext i16 %218 to i32
  %220 = add i32 %219, 3
  %221 = load i32, ptr %11, align 4
  %222 = add i32 %221, %220
  store i32 %222, ptr %11, align 4
  br label %223

223:                                              ; preds = %204, %178, %167
  call void @llvm.lifetime.end.p0(i64 8, ptr %18) #5
  call void @llvm.lifetime.end.p0(i64 2, ptr %17) #5
  call void @llvm.lifetime.end.p0(i64 1, ptr %16) #5
  br label %133, !llvm.loop !18

224:                                              ; preds = %133
  call void @llvm.lifetime.end.p0(i64 1, ptr %15) #5
  call void @llvm.lifetime.end.p0(i64 1, ptr %14) #5
  call void @llvm.lifetime.end.p0(i64 4, ptr %13) #5
  call void @llvm.lifetime.end.p0(i64 1, ptr %12) #5
  call void @llvm.lifetime.end.p0(i64 4, ptr %11) #5
  br label %225

225:                                              ; preds = %224, %22
  ret void
}