; Function Attrs: null_pointer_is_valid sspstrong uwtable
define internal fastcc void @dissect_attr_ndpe(ptr noundef %0, ptr noundef %1, i32 noundef %2, i16 noundef zeroext %3, ptr noundef %4) unnamed_addr #0 {
  %6 = zext i16 %3 to i32
  %7 = icmp ult i16 %3, 11
  br i1 %7, label %8, label %10

8:                                                ; preds = %5
  %9 = tail call ptr @expert_add_info(ptr noundef %4, ptr noundef %0, ptr noundef nonnull @ei_nan_elem_len_invalid)
  br label %.loopexit

10:                                               ; preds = %5
  %11 = load i32, ptr @hf_nan_dialog_tokens, align 4
  %12 = add i32 %2, 3
  %13 = tail call ptr @proto_tree_add_item(ptr noundef %0, i32 noundef %11, ptr noundef %1, i32 noundef %12, i32 noundef 1, i32 noundef 0)
  %14 = add i32 %2, 4
  %15 = load i32, ptr @hf_nan_type_status, align 4
  %16 = load i32, ptr @ett_type_status, align 4
  %17 = tail call ptr @proto_tree_add_bitmask(ptr noundef %0, ptr noundef %1, i32 noundef %14, i32 noundef %15, i32 noundef %16, ptr noundef nonnull @dissect_attr_ndpe.ndp_type_status_fields, i32 noundef -2147483648)
  %18 = shl i32 %14, 3
  %19 = or disjoint i32 %18, 4
  %20 = tail call zeroext i8 @tvb_get_bits8(ptr noundef %1, i32 noundef %19, i32 noundef 4)
  %21 = tail call zeroext i8 @tvb_get_bits8(ptr noundef %1, i32 noundef %19, i32 noundef 4)
  %22 = load i32, ptr @hf_nan_reason_code, align 4
  %23 = add i32 %2, 5
  %24 = tail call ptr @proto_tree_add_item(ptr noundef %0, i32 noundef %22, ptr noundef %1, i32 noundef %23, i32 noundef 1, i32 noundef 0)
  %25 = load i32, ptr @hf_nan_attr_ndp_initiator, align 4
  %26 = add i32 %2, 6
  %27 = tail call ptr @proto_tree_add_item(ptr noundef %0, i32 noundef %25, ptr noundef %1, i32 noundef %26, i32 noundef 6, i32 noundef 0)
  %28 = load i32, ptr @hf_nan_attr_ndp_id, align 4
  %29 = add i32 %2, 12
  %30 = tail call ptr @proto_tree_add_item(ptr noundef %0, i32 noundef %28, ptr noundef %1, i32 noundef %29, i32 noundef 1, i32 noundef 0)
  %31 = add i32 %2, 13
  %32 = load i32, ptr @hf_nan_attr_ndpe_control, align 4
  %33 = load i32, ptr @ett_ndp_control, align 4
  %34 = tail call ptr @proto_tree_add_bitmask(ptr noundef %0, ptr noundef %1, i32 noundef %31, i32 noundef %32, i32 noundef %33, ptr noundef nonnull @dissect_attr_ndpe.ndpe_control_fields, i32 noundef -2147483648)
  %35 = shl i32 %31, 3
  %36 = or disjoint i32 %35, 4
  %37 = tail call zeroext i8 @tvb_get_bits8(ptr noundef %1, i32 noundef %36, i32 noundef 1)
  %38 = add i32 %2, 14
  %39 = icmp eq i8 %37, 1
  %40 = icmp eq i8 %20, 0
  %or.cond = select i1 %39, i1 %40, i1 false
  br i1 %or.cond, label %.sink.split, label %41

41:                                               ; preds = %10
  %42 = icmp eq i8 %20, 1
  %or.cond5 = icmp ult i8 %21, 2
  %or.cond100 = select i1 %42, i1 %or.cond5, i1 false
  br i1 %or.cond100, label %.sink.split, label %46

.sink.split:                                      ; preds = %41, %10
  %hf_nan_publish_id.sink = phi ptr [ @hf_nan_publish_id, %10 ], [ @hf_nan_attr_ndp_responder_ndi, %41 ]
  %.sink108 = phi i32 [ 1, %10 ], [ 6, %41 ]
  %.sink = phi i32 [ 15, %10 ], [ 20, %41 ]
  %43 = load i32, ptr %hf_nan_publish_id.sink, align 4
  %44 = tail call ptr @proto_tree_add_item(ptr noundef %0, i32 noundef %43, ptr noundef %1, i32 noundef %38, i32 noundef %.sink108, i32 noundef 0)
  %45 = add i32 %2, %.sink
  br label %46

46:                                               ; preds = %.sink.split, %41
  %.195 = phi i32 [ 14, %41 ], [ %.sink, %.sink.split ]
  %.1 = phi i32 [ %38, %41 ], [ %45, %.sink.split ]
  %47 = icmp samesign ult i32 %.195, %6
  br i1 %47, label %.lr.ph, label %.loopexit

.lr.ph:                                           ; preds = %46, %73
  %.2106 = phi i32 [ %.3, %73 ], [ %.1, %46 ]
  %.296105 = phi i32 [ %.397, %73 ], [ %.195, %46 ]
  %48 = tail call zeroext i8 @tvb_get_uint8(ptr noundef %1, i32 noundef %.2106)
  %49 = add i32 %.2106, 1
  %50 = tail call zeroext i16 @tvb_get_letohs(ptr noundef %1, i32 noundef %49)
  %51 = zext i16 %50 to i32
  %52 = add nuw nsw i32 %51, 3
  %53 = load i32, ptr @ett_ndpe_tlv, align 4
  %54 = tail call ptr @proto_tree_add_subtree(ptr noundef %0, ptr noundef %1, i32 noundef %.2106, i32 noundef %52, i32 noundef %53, ptr noundef null, ptr noundef nonnull @.str.729)
  %55 = load i32, ptr @hf_nan_attr_ndpe_tlv_type, align 4
  %56 = tail call ptr @proto_tree_add_item(ptr noundef %54, i32 noundef %55, ptr noundef %1, i32 noundef %.2106, i32 noundef 1, i32 noundef 0)
  %57 = load i32, ptr @hf_nan_attr_ndpe_tlv_len, align 4
  %58 = tail call ptr @proto_tree_add_item(ptr noundef %54, i32 noundef %57, ptr noundef %1, i32 noundef %49, i32 noundef 2, i32 noundef -2147483648)
  %59 = add i32 %.2106, 3
  switch i8 %48, label %70 [
    i8 0, label %60
    i8 1, label %63
  ]

60:                                               ; preds = %.lr.ph
  %61 = load i32, ptr @hf_nan_attr_ndpe_tlv_ipv6_interface_identifier, align 4
  %62 = tail call ptr @proto_tree_add_item(ptr noundef %54, i32 noundef %61, ptr noundef %1, i32 noundef %59, i32 noundef 8, i32 noundef 0)
  br label %73

63:                                               ; preds = %.lr.ph
  %64 = load i32, ptr @hf_nan_oui, align 4
  %65 = tail call ptr @proto_tree_add_item(ptr noundef %54, i32 noundef %64, ptr noundef %1, i32 noundef %59, i32 noundef 3, i32 noundef 0)
  %66 = load i32, ptr @hf_nan_attr_vendor_specific_body, align 4
  %67 = add i32 %.2106, 6
  %68 = add nsw i32 %51, -3
  %69 = tail call ptr @proto_tree_add_item(ptr noundef %54, i32 noundef %66, ptr noundef %1, i32 noundef %67, i32 noundef %68, i32 noundef 0)
  br label %73

70:                                               ; preds = %.lr.ph
  %71 = load i32, ptr @hf_nan_attr_vendor_specific_body, align 4
  %72 = tail call ptr @proto_tree_add_item(ptr noundef %54, i32 noundef %71, ptr noundef %1, i32 noundef %59, i32 noundef %51, i32 noundef 0)
  br label %73

73:                                               ; preds = %70, %63, %60
  %.pn = phi i32 [ %52, %70 ], [ %52, %63 ], [ 11, %60 ]
  %.3 = add i32 %.pn, %.2106
  %.397 = add nuw nsw i32 %.pn, %.296105
  %74 = icmp slt i32 %.397, %6
  br i1 %74, label %.lr.ph, label %.loopexit, !llvm.loop !16

.loopexit:                                        ; preds = %73, %46, %8
  ret void
}